ccopy_reg
_reconstructor
p0
(csklearn.linear_model.logistic
LogisticRegression
p1
c__builtin__
object
p2
Ntp3
Rp4
(dp5
S'warm_start'
p6
I00
sS'C'
p7
F1.0
sS'max_iter'
p8
I100
sS'verbose'
p9
I0
sS'intercept_scaling'
p10
I1
sS'dual'
p11
I00
sS'fit_intercept'
p12
I01
sS'classes_'
p13
cnumpy.core.multiarray
_reconstruct
p14
(cnumpy
ndarray
p15
(I0
tp16
S'b'
p17
tp18
Rp19
(I1
(I2
tp20
cnumpy
dtype
p21
(S'f8'
p22
I0
I1
tp23
Rp24
(I3
S'<'
p25
NNNI-1
I-1
I0
tp26
bI00
S'\x00\x00\x00\x00\x00\x00\x00\x00\x00\x00\x00\x00\x00\x00\xf0?'
p27
tp28
bsS'solver'
p29
S'liblinear'
p30
sS'n_iter_'
p31
g14
(g15
(I0
tp32
g17
tp33
Rp34
(I1
(I1
tp35
g21
(S'i4'
p36
I0
I1
tp37
Rp38
(I3
S'<'
p39
NNNI-1
I-1
I0
tp40
bI00
S'\x04\x00\x00\x00'
p41
tp42
bsS'penalty'
p43
S'l2'
p44
sS'multi_class'
p45
S'ovr'
p46
sS'random_state'
p47
NsS'tol'
p48
F0.0001
sS'n_jobs'
p49
I1
sS'coef_'
p50
g14
(g15
(I0
tp51
g17
tp52
Rp53
(I1
(I1
I10
tp54
g24
I01
S'\xa81A0/\xf9\xba?\xdb\x07\x8b\xe3\x83\xd7\xc7\xbf\x9bXY\x8c\x1e\xd9\xb3?\xf4\xa5Gd\xfe\xb2e?\xad\xf2J;\x7f\x9f\x84\xbf\xd7\x16M\x07\x99\x80\xad?\xa3%\xb4k\xac-\x8b\xbf\x9a\x01\xe4\xbb\xbb"\xab?q\xce\xf2\x11\x06\xe8\xc3?C\x19q\xc3\n4\xb4?'
p55
tp56
bsS'intercept_'
p57
g14
(g15
(I0
tp58
g17
tp59
Rp60
(I1
(I1
tp61
g24
I00
S'<o\x85X<\xae\xe0\xbf'
p62
tp63
bsS'class_weight'
p64
Nsb.