ccopy_reg
_reconstructor
p0
(cpandas.core.series
Series
p1
c__builtin__
object
p2
Ntp3
Rp4
(dp5
S'_data'
p6
g0
(cpandas.core.internals
SingleBlockManager
p7
g2
Ntp8
Rp9
((lp10
cpandas.core.index
_new_Index
p11
(cpandas.core.index
Index
p12
(dp13
S'data'
p14
cnumpy.core.multiarray
_reconstruct
p15
(cnumpy
ndarray
p16
(I0
tp17
S'b'
p18
tp19
Rp20
(I1
(I10
tp21
cnumpy
dtype
p22
(S'O4'
p23
I0
I1
tp24
Rp25
(I3
S'|'
p26
NNNI-1
I-1
I63
tp27
bI00
(lp28
S'sex'
p29
aS'age'
p30
aS'exp'
p31
aS'marriage'
p32
aS'school_level'
p33
aS'degree_level'
p34
aS'degree'
p35
aS'expect_salary'
p36
aS'salary1'
p37
aS'simi'
p38
atp39
bsS'name'
p40
Nstp41
Rp42
a(lp43
g15
(g16
(I0
tp44
g18
tp45
Rp46
(I1
(I10
tp47
g22
(S'f8'
p48
I0
I1
tp49
Rp50
(I3
S'<'
p51
NNNI-1
I-1
I0
tp52
bI00
S'\x00\x00\x00\x00(S\xf1<UUUU\xe5\xa3\xb7\xbcUUUUv\x91!\xbd\x00\x00\x00\x00\xc8\x84\xe7\xbc\xab\xaa\xaa\xaa\xaa\xa5\xe7<UUUU\xefD\x14=\xab\xaa\xaa\xaa@s\x17\xbd\xab\xaa\xaa\xaa%\xe1\xc9\xbcUUU\xd5\x91\xf3D\xbd\xab\xaa\xaa\xaa\xce\x9a\xf1\xbc'
p53
tp54
ba(lp55
g11
(g12
(dp56
g14
g15
(g16
(I0
tp57
g18
tp58
Rp59
(I1
(I10
tp60
g25
I00
(lp61
g29
ag30
ag31
ag32
ag33
ag34
ag35
ag36
ag37
ag38
atp62
bsg40
Nstp63
Rp64
a(dp65
S'0.14.1'
p66
(dp67
S'axes'
p68
g10
sS'blocks'
p69
(lp70
(dp71
S'mgr_locs'
p72
c__builtin__
slice
p73
(I0
I10
I1
tp74
Rp75
sS'values'
p76
g46
sasstp77
bsg40
Nsb.